; Function Attrs: nounwind sspstrong uwtable
define dso_local i64 @rb_sprintf(ptr noundef nonnull %0, ...) local_unnamed_addr #0 {
  %2 = alloca [1 x %struct.__va_list_tag], align 16
  call void @llvm.lifetime.start.p0(i64 24, ptr nonnull %2) #21
  call void @llvm.va_start.p0(ptr nonnull %2)
  %3 = call i64 @rb_str_buf_new(i64 noundef 120) #21
  %4 = inttoptr i64 %3 to ptr
  %5 = load i64, ptr %4, align 8, !tbaa !11, !noalias !143
  %6 = and i64 %5, 8192
  %.not.i.i.i.i = icmp eq i64 %6, 0
  %7 = getelementptr inbounds nuw i8, ptr %4, i64 24
  br i1 %.not.i.i.i.i, label %rb_vsprintf.exit, label %8

8:                                                ; preds = %1
  %.sroa.2.0.copyload.i.i.i = load ptr, ptr %7, align 8
  br label %rb_vsprintf.exit

rb_vsprintf.exit:                                 ; preds = %1, %8
  %.sroa.2.0.i.i.i = phi ptr [ %.sroa.2.0.copyload.i.i.i, %8 ], [ %7, %1 ]
  call fastcc void @ruby_vsprintf0(i64 noundef %3, ptr noundef %.sroa.2.0.i.i.i, ptr noundef nonnull %0, ptr noundef nonnull %2)
  call void @llvm.va_end.p0(ptr nonnull %2)
  call void @llvm.lifetime.end.p0(i64 24, ptr nonnull %2) #21
  ret i64 %3
}